target datalayout = "e-m:e-p270:32:32-p271:32:32-p272:64:64-i64:64-i128:128-f80:128-n8:16:32:64-S128"
target triple = "x86_64-pc-linux-gnu"

@_ZN14arrow_vendored17double_conversionL17kWhitespaceTable7E = internal constant [6 x i8] c" \0D\0A\09\0B\0C", align 1

; Function Attrs: mustprogress nounwind uwtable
define internal noundef zeroext i1 @_ZN14arrow_vendored17double_conversionL12isWhitespaceEi(i32 noundef %0) #3 {
  %2 = alloca i1, align 1
  %3 = alloca i32, align 4
  %4 = alloca i32, align 4
  %5 = alloca i32, align 4
  %6 = alloca i32, align 4
  store i32 %0, ptr %3, align 4, !tbaa !10
  %7 = load i32, ptr %3, align 4, !tbaa !10
  %8 = icmp slt i32 %7, 128
  br i1 %8, label %9, label %30

9:                                                ; preds = %1
  call void @llvm.lifetime.start.p0(i64 4, ptr %4) #6
  store i32 0, ptr %4, align 4, !tbaa !10
  br label %10

10:                                               ; preds = %24, %9
  %11 = load i32, ptr %4, align 4, !tbaa !10
  %12 = icmp slt i32 %11, 6
  br i1 %12, label %14, label %13

13:                                               ; preds = %10
  store i32 2, ptr %5, align 4
  br label %27

14:                                               ; preds = %10
  %15 = load i32, ptr %4, align 4, !tbaa !10
  %16 = sext i32 %15 to i64
  %17 = getelementptr inbounds [6 x i8], ptr @_ZN14arrow_vendored17double_conversionL17kWhitespaceTable7E, i64 0, i64 %16
  %18 = load i8, ptr %17, align 1, !tbaa !24
  %19 = sext i8 %18 to i32
  %20 = load i32, ptr %3, align 4, !tbaa !10
  %21 = icmp eq i32 %19, %20
  br i1 %21, label %22, label %23

22:                                               ; preds = %14
  store i1 true, ptr %2, align 1
  store i32 1, ptr %5, align 4
  br label %27

23:                                               ; preds = %14
  br label %24

24:                                               ; preds = %23
  %25 = load i32, ptr %4, align 4, !tbaa !10
  %26 = add nsw i32 %25, 1
  store i32 %26, ptr %4, align 4, !tbaa !10
  br label %10, !llvm.loop !70

27:                                               ; preds = %22, %13
  call void @llvm.lifetime.end.p0(i64 4, ptr %4) #6
  %28 = load i32, ptr %5, align 4
  switch i32 %28, label %54 [
    i32 2, label %29
    i32 1, label %52
  ]

29:                                               ; preds = %27
  br label %51

30:                                               ; preds = %1
  call void @llvm.lifetime.start.p0(i64 4, ptr %6) #6
  store i32 0, ptr %6, align 4, !tbaa !10
  br label %31

31:                                               ; preds = %45, %30
  %32 = load i32, ptr %6, align 4, !tbaa !10
  %33 = icmp slt i32 %32, 20
  br i1 %33, label %35, label %34

34:                                               ; preds = %31
  store i32 5, ptr %5, align 4
  br label %48

35:                                               ; preds = %31
  %36 = load i32, ptr %6, align 4, !tbaa !10
  %37 = sext i32 %36 to i64
  %38 = getelementptr inbounds [20 x i16], ptr @_ZN14arrow_vendored17double_conversionL18kWhitespaceTable16E, i64 0, i64 %37
  %39 = load i16, ptr %38, align 2, !tbaa !38
  %40 = zext i16 %39 to i32
  %41 = load i32, ptr %3, align 4, !tbaa !10
  %42 = icmp eq i32 %40, %41
  br i1 %42, label %43, label %44

43:                                               ; preds = %35
  store i1 true, ptr %2, align 1
  store i32 1, ptr %5, align 4
  br label %48

44:                                               ; preds = %35
  br label %45

45:                                               ; preds = %44
  %46 = load i32, ptr %6, align 4, !tbaa !10
  %47 = add nsw i32 %46, 1
  store i32 %47, ptr %6, align 4, !tbaa !10
  br label %31, !llvm.loop !71

48:                                               ; preds = %43, %34
  call void @llvm.lifetime.end.p0(i64 4, ptr %6) #6
  %49 = load i32, ptr %5, align 4
  switch i32 %49, label %54 [
    i32 5, label %50
    i32 1, label %52
  ]

50:                                               ; preds = %48
  br label %51

51:                                               ; preds = %50, %29
  store i1 false, ptr %2, align 1
  br label %52

52:                                               ; preds = %51, %48, %27
  %53 = load i1, ptr %2, align 1
  ret i1 %53

54:                                               ; preds = %48, %27
  unreachable
}

; Function Attrs: inlinehint mustprogress nounwind uwtable
define internal noundef zeroext i1 @_ZN14arrow_vendored17double_conversionL17AdvanceToNonspaceIPKtEEbPT_S4_(ptr noundef %0, ptr noundef %1) #7 {
  %3 = alloca i1, align 1
  %4 = alloca ptr, align 8
  %5 = alloca ptr, align 8
  store ptr %0, ptr %4, align 8, !tbaa !94
  store ptr %1, ptr %5, align 8, !tbaa !36
  br label %6

6:                                                ; preds = %18, %2
  %7 = load ptr, ptr %4, align 8, !tbaa !94
  %8 = load ptr, ptr %7, align 8, !tbaa !36
  %9 = load ptr, ptr %5, align 8, !tbaa !36
  %10 = icmp ne ptr %8, %9
  br i1 %10, label %11, label %22

11:                                               ; preds = %6
  %12 = load ptr, ptr %4, align 8, !tbaa !94
  %13 = load ptr, ptr %12, align 8, !tbaa !36
  %14 = load i16, ptr %13, align 2, !tbaa !38
  %15 = zext i16 %14 to i32
  %16 = call noundef zeroext i1 @_ZN14arrow_vendored17double_conversionL12isWhitespaceEi(i32 noundef %15)
  br i1 %16, label %18, label %17

17:                                               ; preds = %11
  store i1 true, ptr %3, align 1
  br label %23

18:                                               ; preds = %11
  %19 = load ptr, ptr %4, align 8, !tbaa !94
  %20 = load ptr, ptr %19, align 8, !tbaa !36
  %21 = getelementptr inbounds nuw i16, ptr %20, i32 1
  store ptr %21, ptr %19, align 8, !tbaa !36
  br label %6, !llvm.loop !96

22:                                               ; preds = %6
  store i1 false, ptr %3, align 1
  br label %23

23:                                               ; preds = %22, %17
  %24 = load i1, ptr %3, align 1
  ret i1 %24
}