; Function Attrs: inlinehint mustprogress nofree norecurse nosync nounwind memory(read, argmem: readwrite, inaccessiblemem: none) uwtable
define internal fastcc noundef zeroext i1 @_ZN14arrow_vendored17double_conversionL17AdvanceToNonspaceIPKtEEbPT_S4_(ptr noundef nonnull captures(none) %0, ptr noundef readnone captures(address) %1) unnamed_addr #7 {
  %.promoted = load ptr, ptr %0, align 8, !tbaa !38
  %.not13.not = icmp eq ptr %.promoted, %1
  br i1 %.not13.not, label %_ZN14arrow_vendored17double_conversionL12isWhitespaceEi.exit, label %.lr.ph

.lr.ph:                                           ; preds = %2, %.loopexit
  %3 = phi ptr [ %16, %.loopexit ], [ %.promoted, %2 ]
  %4 = load i16, ptr %3, align 2, !tbaa !40
  %5 = zext i16 %4 to i32
  %6 = icmp ult i16 %4, 128
  br i1 %6, label %.preheader.i, label %.preheader26.i

7:                                                ; preds = %.preheader.i
  %indvars.iv.next35.i = add nuw nsw i64 %indvars.iv34.i, 1
  %exitcond37.not.i = icmp eq i64 %indvars.iv.next35.i, 6
  br i1 %exitcond37.not.i, label %_ZN14arrow_vendored17double_conversionL12isWhitespaceEi.exit, label %.preheader.i, !llvm.loop !16

.preheader.i:                                     ; preds = %.lr.ph, %7
  %indvars.iv34.i = phi i64 [ %indvars.iv.next35.i, %7 ], [ 0, %.lr.ph ]
  %8 = getelementptr inbounds nuw [6 x i8], ptr @_ZN14arrow_vendored17double_conversionL17kWhitespaceTable7E, i64 0, i64 %indvars.iv34.i
  %9 = load i8, ptr %8, align 1, !tbaa !15
  %10 = sext i8 %9 to i32
  %11 = icmp eq i32 %5, %10
  br i1 %11, label %.loopexit, label %7

12:                                               ; preds = %.preheader26.i
  %indvars.iv.next.i = add nuw nsw i64 %indvars.iv.i, 1
  %exitcond.not.i = icmp eq i64 %indvars.iv.next.i, 20
  br i1 %exitcond.not.i, label %_ZN14arrow_vendored17double_conversionL12isWhitespaceEi.exit, label %.preheader26.i, !llvm.loop !41

.preheader26.i:                                   ; preds = %.lr.ph, %12
  %indvars.iv.i = phi i64 [ %indvars.iv.next.i, %12 ], [ 0, %.lr.ph ]
  %13 = getelementptr inbounds nuw [20 x i16], ptr @_ZN14arrow_vendored17double_conversionL18kWhitespaceTable16E, i64 0, i64 %indvars.iv.i
  %14 = load i16, ptr %13, align 2, !tbaa !40
  %15 = icmp eq i16 %4, %14
  br i1 %15, label %.loopexit, label %12

.loopexit:                                        ; preds = %.preheader26.i, %.preheader.i
  %16 = getelementptr inbounds nuw i8, ptr %3, i64 2
  store ptr %16, ptr %0, align 8, !tbaa !38
  %.not.not = icmp eq ptr %16, %1
  br i1 %.not.not, label %_ZN14arrow_vendored17double_conversionL12isWhitespaceEi.exit, label %.lr.ph, !llvm.loop !42

_ZN14arrow_vendored17double_conversionL12isWhitespaceEi.exit: ; preds = %.loopexit, %12, %7, %2
  %.not12 = phi i1 [ false, %2 ], [ true, %7 ], [ true, %12 ], [ false, %.loopexit ]
  ret i1 %.not12
}